; Function Attrs: mustprogress uwtable
define noundef nonnull ptr @_ZN6LibRaw6callocEmm(ptr noundef nonnull readonly align 8 captures(none) dereferenceable(767680) %0, i64 noundef %1, i64 noundef %2) local_unnamed_addr #4 align 2 {
  %4 = getelementptr inbounds nuw i8, ptr %0, i64 767424
  %5 = load i32, ptr %4, align 8, !tbaa !13
  %6 = zext i32 %5 to i64
  %7 = add i64 %2, -1
  %8 = add i64 %7, %6
  %9 = tail call i64 @llvm.umax.i64(i64 %2, i64 1)
  %10 = udiv i64 %8, %9
  %11 = add i64 %10, %1
  %12 = tail call noalias ptr @calloc(i64 noundef %11, i64 noundef %2) #33
  %.not.i.i = icmp eq ptr %12, null
  br i1 %.not.i.i, label %_ZN13libraw_memmgr6callocEmm.exit.thread, label %.preheader.i.i

.preheader.i.i:                                   ; preds = %3
  %13 = getelementptr inbounds nuw i8, ptr %0, i64 767416
  %14 = load ptr, ptr %13, align 8, !tbaa !16
  br label %16

15:                                               ; preds = %16
  %indvars.iv.next.i.i = add nuw nsw i64 %indvars.iv.i.i, 1
  %exitcond.not.i.i = icmp eq i64 %indvars.iv.next.i.i, 511
  br i1 %exitcond.not.i.i, label %19, label %16, !llvm.loop !17

16:                                               ; preds = %15, %.preheader.i.i
  %indvars.iv.i.i = phi i64 [ 0, %.preheader.i.i ], [ %indvars.iv.next.i.i, %15 ]
  %17 = getelementptr inbounds nuw ptr, ptr %14, i64 %indvars.iv.i.i
  %18 = load ptr, ptr %17, align 8, !tbaa !19
  %.not10.i.i = icmp eq ptr %18, null
  br i1 %.not10.i.i, label %_ZN13libraw_memmgr6callocEmm.exit, label %15

19:                                               ; preds = %15
  %20 = getelementptr inbounds nuw i8, ptr %14, i64 4088
  %21 = load ptr, ptr %20, align 8, !tbaa !19
  %.not11.i.i = icmp eq ptr %21, null
  br i1 %.not11.i.i, label %22, label %23

22:                                               ; preds = %19
  store ptr %12, ptr %20, align 8, !tbaa !19
  br label %23

23:                                               ; preds = %22, %19
  %24 = tail call ptr @__cxa_allocate_exception(i64 4) #30
  store i32 11, ptr %24, align 16, !tbaa !20
  tail call void @__cxa_throw(ptr nonnull %24, ptr nonnull @_ZTI17LibRaw_exceptions, ptr null) #31
  unreachable

_ZN13libraw_memmgr6callocEmm.exit:                ; preds = %16
  %25 = getelementptr inbounds nuw ptr, ptr %14, i64 %indvars.iv.i.i
  store ptr %12, ptr %25, align 8, !tbaa !19
  ret ptr %12

_ZN13libraw_memmgr6callocEmm.exit.thread:         ; preds = %3
  %26 = tail call ptr @__cxa_allocate_exception(i64 4) #30
  store i32 1, ptr %26, align 16, !tbaa !20
  tail call void @__cxa_throw(ptr nonnull %26, ptr nonnull @_ZTI17LibRaw_exceptions, ptr null) #31
  unreachable
}